target datalayout = "e-m:e-p270:32:32-p271:32:32-p272:64:64-i64:64-i128:128-f80:128-n8:16:32:64-S128"
target triple = "x86_64-pc-linux-gnu"

%"struct.ozz::animation::TrackTriggeringJob" = type { float, float, float, ptr, ptr }

; Function Attrs: mustprogress nounwind uwtable
define dso_local noundef zeroext i1 @_ZNK3ozz9animation18TrackTriggeringJob8ValidateEv(ptr noundef nonnull align 8 dereferenceable(32) %0) #0 align 2 {
  %2 = alloca ptr, align 8
  %3 = alloca i8, align 1
  store ptr %0, ptr %2, align 8, !tbaa !4
  %4 = load ptr, ptr %2, align 8
  call void @llvm.lifetime.start.p0(i64 1, ptr %3) #7
  store i8 1, ptr %3, align 1, !tbaa !9
  %5 = getelementptr inbounds nuw %"struct.ozz::animation::TrackTriggeringJob", ptr %4, i32 0, i32 3
  %6 = load ptr, ptr %5, align 8, !tbaa !11
  %7 = icmp ne ptr %6, null
  %8 = zext i1 %7 to i32
  %9 = load i8, ptr %3, align 1, !tbaa !9, !range !16, !noundef !17
  %10 = trunc i8 %9 to i1
  %11 = zext i1 %10 to i32
  %12 = and i32 %11, %8
  %13 = icmp ne i32 %12, 0
  %14 = zext i1 %13 to i8
  store i8 %14, ptr %3, align 1, !tbaa !9
  %15 = getelementptr inbounds nuw %"struct.ozz::animation::TrackTriggeringJob", ptr %4, i32 0, i32 4
  %16 = load ptr, ptr %15, align 8, !tbaa !18
  %17 = icmp ne ptr %16, null
  %18 = zext i1 %17 to i32
  %19 = load i8, ptr %3, align 1, !tbaa !9, !range !16, !noundef !17
  %20 = trunc i8 %19 to i1
  %21 = zext i1 %20 to i32
  %22 = and i32 %21, %18
  %23 = icmp ne i32 %22, 0
  %24 = zext i1 %23 to i8
  store i8 %24, ptr %3, align 1, !tbaa !9
  %25 = load i8, ptr %3, align 1, !tbaa !9, !range !16, !noundef !17
  %26 = trunc i8 %25 to i1
  call void @llvm.lifetime.end.p0(i64 1, ptr %3) #7
  ret i1 %26
}